Certificate:
    Data:
        Version: 3 (0x2)
        Serial Number: 903564 (0xdc98c)
        Signature Algorithm: sha256WithRSAEncryption
        Issuer: CN=web-platform-tests
        Validity
            Not Before: Apr 12 00:51:56 2024 GMT
            Not After : Apr 12 00:51:56 2025 GMT
        Subject: CN=web-platform.test
        Subject Public Key Info:
            Public Key Algorithm: rsaEncryption
                RSA Public-Key: (2048 bit)
                Modulus:
                    00:b1:1f:66:6d:d0:22:0c:04:6b:7e:f3:1b:6a:08:
                    fa:77:be:85:6b:3b:62:e1:2c:75:a1:46:cd:30:1e:
                    66:c9:69:fe:a3:1a:26:40:8a:ba:89:50:bc:cb:4e:
                    ba:a3:e5:10:0d:47:d5:71:6d:0f:aa:1d:9b:3d:34:
                    b9:8a:fd:41:99:d2:c9:60:2f:34:23:05:77:2c:30:
                    69:ff:70:9f:4f:48:50:11:ab:23:bd:67:f3:54:82:
                    1a:c9:cd:97:23:2d:87:56:af:3c:e0:65:88:5d:7e:
                    5c:56:64:28:57:57:2d:7d:4c:06:d1:b4:21:1e:60:
                    38:f8:17:ba:aa:c4:af:71:01:12:cd:26:1a:b8:6c:
                    22:a4:87:cb:30:39:a1:73:98:89:3c:7f:47:21:c3:
                    6a:ff:d0:48:3b:4d:40:af:79:af:05:34:bc:5d:df:
                    30:c6:75:37:81:aa:4b:e8:01:ca:51:57:bf:0c:11:
                    21:f8:8c:da:5c:97:fa:17:b7:16:93:4b:ec:02:af:
                    5c:45:f5:f5:20:78:b4:c8:79:17:03:d1:18:ed:41:
                    5b:ca:11:60:3d:a7:65:27:7d:2c:cd:17:48:89:3b:
                    2a:f8:4c:22:6f:a6:d9:1e:17:eb:b7:1c:6d:44:64:
                    f7:e5:17:51:a3:20:ad:c1:0c:8f:2a:70:db:d5:d8:
                    86:9d
                Exponent: 65537 (0x10001)
        X509v3 extensions:
            X509v3 Basic Constraints: 
                CA:FALSE
            X509v3 Subject Key Identifier: 
                83:E9:DE:2B:BF:E6:F8:5D:4E:DA:12:96:0A:A0:8F:E2:E7:75:F9:56
            X509v3 Authority Key Identifier: 
                keyid:F6:33:94:AE:24:CB:5A:B8:3E:7B:0D:3C:81:1B:10:0D:44:D3:20:81

            X509v3 Key Usage: 
                Digital Signature, Non Repudiation, Key Encipherment
            X509v3 Extended Key Usage: 
                TLS Web Server Authentication
            X509v3 Subject Alternative Name: 
                DNS:web-platform.test, DNS:www.web-platform.test, DNS:not-web-platform.test, DNS:www1.web-platform.test, DNS:www2.web-platform.test, DNS:www.not-web-platform.test, DNS:www.www.web-platform.test, DNS:www1.www.web-platform.test, DNS:www.www1.web-platform.test, DNS:www2.www.web-platform.test, DNS:www1.not-web-platform.test, DNS:www2.not-web-platform.test, DNS:www.www2.web-platform.test, DNS:www2.www1.web-platform.test, DNS:www1.www1.web-platform.test, DNS:www2.www2.web-platform.test, DNS:www1.www2.web-platform.test, DNS:www.www.not-web-platform.test, DNS:www.www1.not-web-platform.test, DNS:www.www2.not-web-platform.test, DNS:xn--lve-6lad.web-platform.test, DNS:www1.www.not-web-platform.test, DNS:www2.www.not-web-platform.test, DNS:www2.www2.not-web-platform.test, DNS:www1.www1.not-web-platform.test, DNS:www1.www2.not-web-platform.test, DNS:www2.www1.not-web-platform.test, DNS:xn--lve-6lad.not-web-platform.test, DNS:xn--lve-6lad.www.web-platform.test, DNS:www.xn--lve-6lad.web-platform.test, DNS:www2.xn--lve-6lad.web-platform.test, DNS:xn--lve-6lad.www2.web-platform.test, DNS:xn--lve-6lad.www1.web-platform.test, DNS:www1.xn--lve-6lad.web-platform.test, DNS:xn--lve-6lad.www.not-web-platform.test, DNS:www.xn--lve-6lad.not-web-platform.test, DNS:www1.xn--lve-6lad.not-web-platform.test, DNS:xn--lve-6lad.www2.not-web-platform.test, DNS:www2.xn--lve-6lad.not-web-platform.test, DNS:xn--lve-6lad.www1.not-web-platform.test, DNS:xn--n8j6ds53lwwkrqhv28a.web-platform.test, DNS:xn--lve-6lad.xn--lve-6lad.web-platform.test, DNS:xn--n8j6ds53lwwkrqhv28a.www.web-platform.test, DNS:www.xn--n8j6ds53lwwkrqhv28a.web-platform.test, DNS:xn--n8j6ds53lwwkrqhv28a.not-web-platform.test, DNS:xn--n8j6ds53lwwkrqhv28a.www2.web-platform.test, DNS:xn--n8j6ds53lwwkrqhv28a.www1.web-platform.test, DNS:www2.xn--n8j6ds53lwwkrqhv28a.web-platform.test, DNS:www1.xn--n8j6ds53lwwkrqhv28a.web-platform.test, DNS:xn--lve-6lad.xn--lve-6lad.not-web-platform.test, DNS:xn--n8j6ds53lwwkrqhv28a.www.not-web-platform.test, DNS:www.xn--n8j6ds53lwwkrqhv28a.not-web-platform.test, DNS:xn--n8j6ds53lwwkrqhv28a.www1.not-web-platform.test, DNS:www2.xn--n8j6ds53lwwkrqhv28a.not-web-platform.test, DNS:xn--n8j6ds53lwwkrqhv28a.www2.not-web-platform.test, DNS:www1.xn--n8j6ds53lwwkrqhv28a.not-web-platform.test, DNS:xn--n8j6ds53lwwkrqhv28a.xn--lve-6lad.web-platform.test, DNS:xn--lve-6lad.xn--n8j6ds53lwwkrqhv28a.web-platform.test, DNS:xn--lve-6lad.xn--n8j6ds53lwwkrqhv28a.not-web-platform.test, DNS:xn--n8j6ds53lwwkrqhv28a.xn--lve-6lad.not-web-platform.test, DNS:xn--n8j6ds53lwwkrqhv28a.xn--n8j6ds53lwwkrqhv28a.web-platform.test, DNS:xn--n8j6ds53lwwkrqhv28a.xn--n8j6ds53lwwkrqhv28a.not-web-platform.test
    Signature Algorithm: sha256WithRSAEncryption
         5a:66:6e:1e:5d:ef:96:3c:13:2a:4d:30:e9:f2:29:62:4e:81:
         6a:1b:b3:a8:4e:46:55:8d:bd:a8:cf:59:7c:4a:40:ab:8b:42:
         58:78:61:b3:e7:4d:30:8b:fc:18:83:6f:fa:42:14:59:5c:18:
         06:49:f3:ec:32:f6:78:30:f3:77:58:08:68:1d:42:53:0a:f2:
         12:f3:ce:dd:e8:c9:82:be:e0:6d:cf:a8:53:5f:ee:6f:a6:e1:
         01:e6:18:c6:67:af:52:09:fb:34:36:f4:47:d4:41:bb:10:ca:
         ca:9f:07:34:b3:de:14:b0:66:84:4f:0d:df:de:25:5f:91:fb:
         78:f9:6b:c8:36:da:7b:50:f1:76:d7:dc:35:85:30:b8:c1:9c:
         4d:e0:0f:e2:f2:e7:6f:72:83:81:c9:f0:43:b7:d7:e3:19:9a:
         61:7a:07:13:8c:ed:ef:2a:62:28:03:07:89:ae:5d:75:e4:8d:
         cd:f2:b5:43:0a:70:5f:7f:00:ca:87:1b:20:a7:12:8a:c4:84:
         78:f6:56:06:41:2e:3b:ea:78:9f:f9:e1:06:c3:30:51:fa:c6:
         cc:e6:ec:6b:77:5b:a0:b0:a2:e2:02:a7:16:de:5c:b6:90:ea:
         74:ab:e9:af:a0:42:8a:19:74:3c:f7:84:4e:49:58:fe:c0:68:
         2a:ac:0f:b4
-----BEGIN CERTIFICATE-----
MIIMsjCCC5qgAwIBAgIDDcmMMA0GCSqGSIb3DQEBCwUAMB0xGzAZBgNVBAMMEndl
Yi1wbGF0Zm9ybS10ZXN0czAeFw0yNDA0MTIwMDUxNTZaFw0yNTA0MTIwMDUxNTZa
MBwxGjAYBgNVBAMMEXdlYi1wbGF0Zm9ybS50ZXN0MIIBIjANBgkqhkiG9w0BAQEF
AAOCAQ8AMIIBCgKCAQEAsR9mbdAiDARrfvMbagj6d76Fazti4Sx1oUbNMB5myWn+
oxomQIq6iVC8y066o+UQDUfVcW0Pqh2bPTS5iv1BmdLJYC80IwV3LDBp/3CfT0hQ
EasjvWfzVIIayc2XIy2HVq884GWIXX5cVmQoV1ctfUwG0bQhHmA4+Be6qsSvcQES
zSYauGwipIfLMDmhc5iJPH9HIcNq/9BIO01Ar3mvBTS8Xd8wxnU3gapL6AHKUVe/
DBEh+IzaXJf6F7cWk0vsAq9cRfX1IHi0yHkXA9EY7UFbyhFgPadlJ30szRdIiTsq
+Ewib6bZHhfrtxxtRGT35RdRoyCtwQyPKnDb1diGnQIDAQABo4IJ+jCCCfYwCQYD
VR0TBAIwADAdBgNVHQ4EFgQUg+neK7/m+F1O2hKWCqCP4ud1+VYwHwYDVR0jBBgw
FoAU9jOUriTLWrg+ew08gRsQDUTTIIEwCwYDVR0PBAQDAgXgMBMGA1UdJQQMMAoG
CCsGAQUFBwMBMIIJhQYDVR0RBIIJfDCCCXiCEXdlYi1wbGF0Zm9ybS50ZXN0ghV3
d3cud2ViLXBsYXRmb3JtLnRlc3SCFW5vdC13ZWItcGxhdGZvcm0udGVzdIIWd3d3
MS53ZWItcGxhdGZvcm0udGVzdIIWd3d3Mi53ZWItcGxhdGZvcm0udGVzdIIZd3d3
Lm5vdC13ZWItcGxhdGZvcm0udGVzdIIZd3d3Lnd3dy53ZWItcGxhdGZvcm0udGVz
dIIad3d3MS53d3cud2ViLXBsYXRmb3JtLnRlc3SCGnd3dy53d3cxLndlYi1wbGF0
Zm9ybS50ZXN0ghp3d3cyLnd3dy53ZWItcGxhdGZvcm0udGVzdIIad3d3MS5ub3Qt
d2ViLXBsYXRmb3JtLnRlc3SCGnd3dzIubm90LXdlYi1wbGF0Zm9ybS50ZXN0ghp3
d3cud3d3Mi53ZWItcGxhdGZvcm0udGVzdIIbd3d3Mi53d3cxLndlYi1wbGF0Zm9y
bS50ZXN0ght3d3cxLnd3dzEud2ViLXBsYXRmb3JtLnRlc3SCG3d3dzIud3d3Mi53
ZWItcGxhdGZvcm0udGVzdIIbd3d3MS53d3cyLndlYi1wbGF0Zm9ybS50ZXN0gh13
d3cud3d3Lm5vdC13ZWItcGxhdGZvcm0udGVzdIIed3d3Lnd3dzEubm90LXdlYi1w
bGF0Zm9ybS50ZXN0gh53d3cud3d3Mi5ub3Qtd2ViLXBsYXRmb3JtLnRlc3SCHnhu
LS1sdmUtNmxhZC53ZWItcGxhdGZvcm0udGVzdIIed3d3MS53d3cubm90LXdlYi1w
bGF0Zm9ybS50ZXN0gh53d3cyLnd3dy5ub3Qtd2ViLXBsYXRmb3JtLnRlc3SCH3d3
dzIud3d3Mi5ub3Qtd2ViLXBsYXRmb3JtLnRlc3SCH3d3dzEud3d3MS5ub3Qtd2Vi
LXBsYXRmb3JtLnRlc3SCH3d3dzEud3d3Mi5ub3Qtd2ViLXBsYXRmb3JtLnRlc3SC
H3d3dzIud3d3MS5ub3Qtd2ViLXBsYXRmb3JtLnRlc3SCInhuLS1sdmUtNmxhZC5u
b3Qtd2ViLXBsYXRmb3JtLnRlc3SCInhuLS1sdmUtNmxhZC53d3cud2ViLXBsYXRm
b3JtLnRlc3SCInd3dy54bi0tbHZlLTZsYWQud2ViLXBsYXRmb3JtLnRlc3SCI3d3
dzIueG4tLWx2ZS02bGFkLndlYi1wbGF0Zm9ybS50ZXN0giN4bi0tbHZlLTZsYWQu
d3d3Mi53ZWItcGxhdGZvcm0udGVzdIIjeG4tLWx2ZS02bGFkLnd3dzEud2ViLXBs
YXRmb3JtLnRlc3SCI3d3dzEueG4tLWx2ZS02bGFkLndlYi1wbGF0Zm9ybS50ZXN0
giZ4bi0tbHZlLTZsYWQud3d3Lm5vdC13ZWItcGxhdGZvcm0udGVzdIImd3d3Lnhu
LS1sdmUtNmxhZC5ub3Qtd2ViLXBsYXRmb3JtLnRlc3SCJ3d3dzEueG4tLWx2ZS02
bGFkLm5vdC13ZWItcGxhdGZvcm0udGVzdIIneG4tLWx2ZS02bGFkLnd3dzIubm90
LXdlYi1wbGF0Zm9ybS50ZXN0gid3d3cyLnhuLS1sdmUtNmxhZC5ub3Qtd2ViLXBs
YXRmb3JtLnRlc3SCJ3huLS1sdmUtNmxhZC53d3cxLm5vdC13ZWItcGxhdGZvcm0u
dGVzdIIpeG4tLW44ajZkczUzbHd3a3JxaHYyOGEud2ViLXBsYXRmb3JtLnRlc3SC
K3huLS1sdmUtNmxhZC54bi0tbHZlLTZsYWQud2ViLXBsYXRmb3JtLnRlc3SCLXhu
LS1uOGo2ZHM1M2x3d2tycWh2MjhhLnd3dy53ZWItcGxhdGZvcm0udGVzdIItd3d3
LnhuLS1uOGo2ZHM1M2x3d2tycWh2MjhhLndlYi1wbGF0Zm9ybS50ZXN0gi14bi0t
bjhqNmRzNTNsd3drcnFodjI4YS5ub3Qtd2ViLXBsYXRmb3JtLnRlc3SCLnhuLS1u
OGo2ZHM1M2x3d2tycWh2MjhhLnd3dzIud2ViLXBsYXRmb3JtLnRlc3SCLnhuLS1u
OGo2ZHM1M2x3d2tycWh2MjhhLnd3dzEud2ViLXBsYXRmb3JtLnRlc3SCLnd3dzIu
eG4tLW44ajZkczUzbHd3a3JxaHYyOGEud2ViLXBsYXRmb3JtLnRlc3SCLnd3dzEu
eG4tLW44ajZkczUzbHd3a3JxaHYyOGEud2ViLXBsYXRmb3JtLnRlc3SCL3huLS1s
dmUtNmxhZC54bi0tbHZlLTZsYWQubm90LXdlYi1wbGF0Zm9ybS50ZXN0gjF4bi0t
bjhqNmRzNTNsd3drcnFodjI4YS53d3cubm90LXdlYi1wbGF0Zm9ybS50ZXN0gjF3
d3cueG4tLW44ajZkczUzbHd3a3JxaHYyOGEubm90LXdlYi1wbGF0Zm9ybS50ZXN0
gjJ4bi0tbjhqNmRzNTNsd3drcnFodjI4YS53d3cxLm5vdC13ZWItcGxhdGZvcm0u
dGVzdIIyd3d3Mi54bi0tbjhqNmRzNTNsd3drcnFodjI4YS5ub3Qtd2ViLXBsYXRm
b3JtLnRlc3SCMnhuLS1uOGo2ZHM1M2x3d2tycWh2MjhhLnd3dzIubm90LXdlYi1w
bGF0Zm9ybS50ZXN0gjJ3d3cxLnhuLS1uOGo2ZHM1M2x3d2tycWh2MjhhLm5vdC13
ZWItcGxhdGZvcm0udGVzdII2eG4tLW44ajZkczUzbHd3a3JxaHYyOGEueG4tLWx2
ZS02bGFkLndlYi1wbGF0Zm9ybS50ZXN0gjZ4bi0tbHZlLTZsYWQueG4tLW44ajZk
czUzbHd3a3JxaHYyOGEud2ViLXBsYXRmb3JtLnRlc3SCOnhuLS1sdmUtNmxhZC54
bi0tbjhqNmRzNTNsd3drcnFodjI4YS5ub3Qtd2ViLXBsYXRmb3JtLnRlc3SCOnhu
LS1uOGo2ZHM1M2x3d2tycWh2MjhhLnhuLS1sdmUtNmxhZC5ub3Qtd2ViLXBsYXRm
b3JtLnRlc3SCQXhuLS1uOGo2ZHM1M2x3d2tycWh2MjhhLnhuLS1uOGo2ZHM1M2x3
d2tycWh2MjhhLndlYi1wbGF0Zm9ybS50ZXN0gkV4bi0tbjhqNmRzNTNsd3drcnFo
djI4YS54bi0tbjhqNmRzNTNsd3drcnFodjI4YS5ub3Qtd2ViLXBsYXRmb3JtLnRl
c3QwDQYJKoZIhvcNAQELBQADggEBAFpmbh5d75Y8EypNMOnyKWJOgWobs6hORlWN
vajPWXxKQKuLQlh4YbPnTTCL/BiDb/pCFFlcGAZJ8+wy9ngw83dYCGgdQlMK8hLz
zt3oyYK+4G3PqFNf7m+m4QHmGMZnr1IJ+zQ29EfUQbsQysqfBzSz3hSwZoRPDd/e
JV+R+3j5a8g22ntQ8XbX3DWFMLjBnE3gD+Ly529yg4HJ8EO31+MZmmF6BxOM7e8q
YigDB4muXXXkjc3ytUMKcF9/AMqHGyCnEorEhHj2VgZBLjvqeJ/54QbDMFH6xszm
7Gt3W6CwouICpxbeXLaQ6nSr6a+gQooZdDz3hE5JWP7AaCqsD7Q=
-----END CERTIFICATE-----
